target datalayout = "e-m:e-p270:32:32-p271:32:32-p272:64:64-i64:64-i128:128-f80:128-n8:16:32:64-S128"
target triple = "x86_64-pc-linux-gnu"

%"class.std::__cxx11::basic_string" = type { %"struct.std::__cxx11::basic_string<char>::_Alloc_hider", i64, %union.anon.15 }
%"struct.std::__cxx11::basic_string<char>::_Alloc_hider" = type { ptr }
%union.anon.15 = type { i64, [8 x i8] }
%"struct.OpenImageIO::v3_1_0::TypeDesc" = type { i8, i8, i8, i8, i32 }
%"class.OpenImageIO::v3_1_0::TIFFInput" = type { %"class.OpenImageIO::v3_1_0::ImageInput", ptr, %"class.std::__cxx11::basic_string", %"class.std::vector.16", %"class.std::vector.16", i32, i32, i8, i8, i8, i8, i8, i8, i8, i8, i8, i32, i16, i16, i16, i16, i16, i16, %"class.std::vector.21", %"class.std::vector.26", %"class.std::vector.31" }
%"class.OpenImageIO::v3_1_0::ImageInput" = type { ptr, %"class.OpenImageIO::v3_1_0::ImageSpec", %"class.std::unique_ptr" }
%"class.OpenImageIO::v3_1_0::ImageSpec" = type { i32, i32, i32, i32, i32, i32, i32, i32, i32, i32, i32, i32, i32, i32, i32, i32, %"struct.OpenImageIO::v3_1_0::TypeDesc", %"class.std::vector", %"class.std::vector.0", i32, i32, i8, %"class.OpenImageIO::v3_1_0::ParamValueList" }
%"class.std::vector" = type { %"struct.std::_Vector_base" }
%"struct.std::_Vector_base" = type { %"struct.std::_Vector_base<OpenImageIO::v3_1_0::TypeDesc, std::allocator<OpenImageIO::v3_1_0::TypeDesc>>::_Vector_impl" }
%"struct.std::_Vector_base<OpenImageIO::v3_1_0::TypeDesc, std::allocator<OpenImageIO::v3_1_0::TypeDesc>>::_Vector_impl" = type { %"struct.std::_Vector_base<OpenImageIO::v3_1_0::TypeDesc, std::allocator<OpenImageIO::v3_1_0::TypeDesc>>::_Vector_impl_data" }
%"struct.std::_Vector_base<OpenImageIO::v3_1_0::TypeDesc, std::allocator<OpenImageIO::v3_1_0::TypeDesc>>::_Vector_impl_data" = type { ptr, ptr, ptr }
%"class.std::vector.0" = type { %"struct.std::_Vector_base.1" }
%"struct.std::_Vector_base.1" = type { %"struct.std::_Vector_base<std::__cxx11::basic_string<char>, std::allocator<std::__cxx11::basic_string<char>>>::_Vector_impl" }
%"struct.std::_Vector_base<std::__cxx11::basic_string<char>, std::allocator<std::__cxx11::basic_string<char>>>::_Vector_impl" = type { %"struct.std::_Vector_base<std::__cxx11::basic_string<char>, std::allocator<std::__cxx11::basic_string<char>>>::_Vector_impl_data" }
%"struct.std::_Vector_base<std::__cxx11::basic_string<char>, std::allocator<std::__cxx11::basic_string<char>>>::_Vector_impl_data" = type { ptr, ptr, ptr }
%"class.OpenImageIO::v3_1_0::ParamValueList" = type { %"class.std::vector.5" }
%"class.std::vector.5" = type { %"struct.std::_Vector_base.6" }
%"struct.std::_Vector_base.6" = type { %"struct.std::_Vector_base<OpenImageIO::v3_1_0::ParamValue, std::allocator<OpenImageIO::v3_1_0::ParamValue>>::_Vector_impl" }
%"struct.std::_Vector_base<OpenImageIO::v3_1_0::ParamValue, std::allocator<OpenImageIO::v3_1_0::ParamValue>>::_Vector_impl" = type { %"struct.std::_Vector_base<OpenImageIO::v3_1_0::ParamValue, std::allocator<OpenImageIO::v3_1_0::ParamValue>>::_Vector_impl_data" }
%"struct.std::_Vector_base<OpenImageIO::v3_1_0::ParamValue, std::allocator<OpenImageIO::v3_1_0::ParamValue>>::_Vector_impl_data" = type { ptr, ptr, ptr }
%"class.std::unique_ptr" = type { %"struct.std::__uniq_ptr_data" }
%"struct.std::__uniq_ptr_data" = type { %"class.std::__uniq_ptr_impl" }
%"class.std::__uniq_ptr_impl" = type { %"class.std::tuple" }
%"class.std::tuple" = type { %"struct.std::_Tuple_impl" }
%"struct.std::_Tuple_impl" = type { %"struct.std::_Tuple_impl.10", %"struct.std::_Head_base.11" }
%"struct.std::_Tuple_impl.10" = type { %"struct.std::_Head_base" }
%"struct.std::_Head_base" = type { ptr }
%"struct.std::_Head_base.11" = type { ptr }
%"class.std::vector.16" = type { %"struct.std::_Vector_base.17" }
%"struct.std::_Vector_base.17" = type { %"struct.std::_Vector_base<unsigned char, std::allocator<unsigned char>>::_Vector_impl" }
%"struct.std::_Vector_base<unsigned char, std::allocator<unsigned char>>::_Vector_impl" = type { %"struct.std::_Vector_base<unsigned char, std::allocator<unsigned char>>::_Vector_impl_data" }
%"struct.std::_Vector_base<unsigned char, std::allocator<unsigned char>>::_Vector_impl_data" = type { ptr, ptr, ptr }
%"class.std::vector.21" = type { %"struct.std::_Vector_base.22" }
%"struct.std::_Vector_base.22" = type { %"struct.std::_Vector_base<unsigned short, std::allocator<unsigned short>>::_Vector_impl" }
%"struct.std::_Vector_base<unsigned short, std::allocator<unsigned short>>::_Vector_impl" = type { %"struct.std::_Vector_base<unsigned short, std::allocator<unsigned short>>::_Vector_impl_data" }
%"struct.std::_Vector_base<unsigned short, std::allocator<unsigned short>>::_Vector_impl_data" = type { ptr, ptr, ptr }
%"class.std::vector.26" = type { %"struct.std::_Vector_base.27" }
%"struct.std::_Vector_base.27" = type { %"struct.std::_Vector_base<unsigned int, std::allocator<unsigned int>>::_Vector_impl" }
%"struct.std::_Vector_base<unsigned int, std::allocator<unsigned int>>::_Vector_impl" = type { %"struct.std::_Vector_base<unsigned int, std::allocator<unsigned int>>::_Vector_impl_data" }
%"struct.std::_Vector_base<unsigned int, std::allocator<unsigned int>>::_Vector_impl_data" = type { ptr, ptr, ptr }
%"class.std::vector.31" = type { %"struct.std::_Vector_base.32" }
%"struct.std::_Vector_base.32" = type { %"struct.std::_Vector_base<OpenImageIO::v3_1_0::ImageSpec, std::allocator<OpenImageIO::v3_1_0::ImageSpec>>::_Vector_impl" }
%"struct.std::_Vector_base<OpenImageIO::v3_1_0::ImageSpec, std::allocator<OpenImageIO::v3_1_0::ImageSpec>>::_Vector_impl" = type { %"struct.std::_Vector_base<OpenImageIO::v3_1_0::ImageSpec, std::allocator<OpenImageIO::v3_1_0::ImageSpec>>::_Vector_impl_data" }
%"struct.std::_Vector_base<OpenImageIO::v3_1_0::ImageSpec, std::allocator<OpenImageIO::v3_1_0::ImageSpec>>::_Vector_impl_data" = type { ptr, ptr, ptr }
%"class.std::lock_guard" = type { ptr }

@_ZN11OpenImageIO6v3_1_011TypeUnknownE = linkonce_odr hidden constant %"struct.OpenImageIO::v3_1_0::TypeDesc" { i8 0, i8 1, i8 0, i8 0, i32 0 }, comdat, align 4

; Function Attrs: mustprogress nounwind uwtable
define linkonce_odr void @_ZNSt10lock_guardIRKN11OpenImageIO6v3_1_010ImageInputEED2Ev(ptr noundef nonnull align 8 dereferenceable(8) %0) unnamed_addr #7 comdat align 2 personality ptr @__gxx_personality_v0 {
  %2 = alloca ptr, align 8
  store ptr %0, ptr %2, align 8, !tbaa !202
  %3 = load ptr, ptr %2, align 8
  %4 = getelementptr inbounds nuw %"class.std::lock_guard", ptr %3, i32 0, i32 0
  %5 = load ptr, ptr %4, align 8, !tbaa !204
  invoke void @_ZNK11OpenImageIO6v3_1_010ImageInput6unlockEv(ptr noundef nonnull align 8 dereferenceable(184) %5)
          to label %6 unwind label %7

6:                                                ; preds = %1
  ret void

7:                                                ; preds = %1
  %8 = landingpad { ptr, i32 }
          catch ptr null
  %9 = extractvalue { ptr, i32 } %8, 0
  call void @__clang_call_terminate(ptr %9) #29
  unreachable
}

; Function Attrs: mustprogress nounwind uwtable
define linkonce_odr noundef zeroext i1 @_ZNK11OpenImageIO6v3_1_08TypeDesceqERKS1_(ptr noundef nonnull align 4 dereferenceable(8) %0, ptr noundef nonnull align 4 dereferenceable(8) %1) #7 comdat align 2 {
  %3 = alloca ptr, align 8
  %4 = alloca ptr, align 8
  store ptr %0, ptr %3, align 8, !tbaa !179
  store ptr %1, ptr %4, align 8, !tbaa !179
  %5 = load ptr, ptr %3, align 8
  %6 = getelementptr inbounds nuw %"struct.OpenImageIO::v3_1_0::TypeDesc", ptr %5, i32 0, i32 0
  %7 = load i8, ptr %6, align 4, !tbaa !182
  %8 = zext i8 %7 to i32
  %9 = load ptr, ptr %4, align 8, !tbaa !179
  %10 = getelementptr inbounds nuw %"struct.OpenImageIO::v3_1_0::TypeDesc", ptr %9, i32 0, i32 0
  %11 = load i8, ptr %10, align 4, !tbaa !182
  %12 = zext i8 %11 to i32
  %13 = icmp eq i32 %8, %12
  br i1 %13, label %14, label %39

14:                                               ; preds = %2
  %15 = getelementptr inbounds nuw %"struct.OpenImageIO::v3_1_0::TypeDesc", ptr %5, i32 0, i32 1
  %16 = load i8, ptr %15, align 1, !tbaa !183
  %17 = zext i8 %16 to i32
  %18 = load ptr, ptr %4, align 8, !tbaa !179
  %19 = getelementptr inbounds nuw %"struct.OpenImageIO::v3_1_0::TypeDesc", ptr %18, i32 0, i32 1
  %20 = load i8, ptr %19, align 1, !tbaa !183
  %21 = zext i8 %20 to i32
  %22 = icmp eq i32 %17, %21
  br i1 %22, label %23, label %39

23:                                               ; preds = %14
  %24 = getelementptr inbounds nuw %"struct.OpenImageIO::v3_1_0::TypeDesc", ptr %5, i32 0, i32 2
  %25 = load i8, ptr %24, align 2, !tbaa !199
  %26 = zext i8 %25 to i32
  %27 = load ptr, ptr %4, align 8, !tbaa !179
  %28 = getelementptr inbounds nuw %"struct.OpenImageIO::v3_1_0::TypeDesc", ptr %27, i32 0, i32 2
  %29 = load i8, ptr %28, align 2, !tbaa !199
  %30 = zext i8 %29 to i32
  %31 = icmp eq i32 %26, %30
  br i1 %31, label %32, label %39

32:                                               ; preds = %23
  %33 = getelementptr inbounds nuw %"struct.OpenImageIO::v3_1_0::TypeDesc", ptr %5, i32 0, i32 4
  %34 = load i32, ptr %33, align 4, !tbaa !201
  %35 = load ptr, ptr %4, align 8, !tbaa !179
  %36 = getelementptr inbounds nuw %"struct.OpenImageIO::v3_1_0::TypeDesc", ptr %35, i32 0, i32 4
  %37 = load i32, ptr %36, align 4, !tbaa !201
  %38 = icmp eq i32 %34, %37
  br label %39

39:                                               ; preds = %32, %23, %14, %2
  %40 = phi i1 [ false, %23 ], [ false, %14 ], [ false, %2 ], [ %38, %32 ]
  ret i1 %40
}

; Function Attrs: mustprogress uwtable
define linkonce_odr void @_ZNSt10lock_guardIRKN11OpenImageIO6v3_1_010ImageInputEEC2ES4_(ptr noundef nonnull align 8 dereferenceable(8) %0, ptr noundef nonnull align 8 dereferenceable(184) %1) unnamed_addr #6 comdat align 2 {
  %3 = alloca ptr, align 8
  %4 = alloca ptr, align 8
  store ptr %0, ptr %3, align 8, !tbaa !202
  store ptr %1, ptr %4, align 8, !tbaa !133
  %5 = load ptr, ptr %3, align 8
  %6 = getelementptr inbounds nuw %"class.std::lock_guard", ptr %5, i32 0, i32 0
  %7 = load ptr, ptr %4, align 8, !tbaa !133
  store ptr %7, ptr %6, align 8, !tbaa !133
  %8 = getelementptr inbounds nuw %"class.std::lock_guard", ptr %5, i32 0, i32 0
  %9 = load ptr, ptr %8, align 8, !tbaa !204
  call void @_ZNK11OpenImageIO6v3_1_010ImageInput4lockEv(ptr noundef nonnull align 8 dereferenceable(184) %9)
  ret void
}

; Function Attrs: mustprogress uwtable
define hidden noundef zeroext i1 @_ZN11OpenImageIO6v3_1_09TIFFInput14read_scanlinesEiiiiiiiNS0_8TypeDescEPvll(ptr noundef nonnull align 8 dereferenceable(384) %0, i32 noundef %1, i32 noundef %2, i32 noundef %3, i32 noundef %4, i32 noundef %5, i32 noundef %6, i32 noundef %7, i64 %8, ptr noundef %9, i64 noundef %10, i64 noundef %11) unnamed_addr #6 align 2 personality ptr @__gxx_personality_v0 {
  %13 = alloca %"struct.OpenImageIO::v3_1_0::TypeDesc", align 4
  %14 = alloca ptr, align 8
  %15 = alloca i32, align 4
  %16 = alloca i32, align 4
  %17 = alloca i32, align 4
  %18 = alloca i32, align 4
  %19 = alloca i32, align 4
  %20 = alloca i32, align 4
  %21 = alloca i32, align 4
  %22 = alloca ptr, align 8
  %23 = alloca i64, align 8
  %24 = alloca i64, align 8
  %25 = alloca i8, align 1
  %26 = alloca %"struct.OpenImageIO::v3_1_0::TypeDesc", align 4
  %27 = alloca i32, align 4
  %28 = alloca i32, align 4
  %29 = alloca i32, align 4
  %30 = alloca i32, align 4
  %31 = alloca %"class.std::lock_guard", align 8
  %32 = alloca ptr, align 8
  %33 = alloca i32, align 4
  %34 = alloca %"struct.OpenImageIO::v3_1_0::TypeDesc", align 4
  store i64 %8, ptr %13, align 4
  store ptr %0, ptr %14, align 8, !tbaa !24
  store i32 %1, ptr %15, align 4, !tbaa !22
  store i32 %2, ptr %16, align 4, !tbaa !22
  store i32 %3, ptr %17, align 4, !tbaa !22
  store i32 %4, ptr %18, align 4, !tbaa !22
  store i32 %5, ptr %19, align 4, !tbaa !22
  store i32 %6, ptr %20, align 4, !tbaa !22
  store i32 %7, ptr %21, align 4, !tbaa !22
  store ptr %9, ptr %22, align 8, !tbaa !128
  store i64 %10, ptr %23, align 8, !tbaa !109
  store i64 %11, ptr %24, align 8, !tbaa !109
  %35 = load ptr, ptr %14, align 8
  call void @llvm.lifetime.start.p0(i64 1, ptr %25) #3
  %36 = load i32, ptr %15, align 4, !tbaa !22
  %37 = load i32, ptr %16, align 4, !tbaa !22
  %38 = load i32, ptr %17, align 4, !tbaa !22
  %39 = load i32, ptr %18, align 4, !tbaa !22
  %40 = load i32, ptr %19, align 4, !tbaa !22
  %41 = load i32, ptr %20, align 4, !tbaa !22
  %42 = load i32, ptr %21, align 4, !tbaa !22
  call void @llvm.memcpy.p0.p0.i64(ptr align 4 %26, ptr align 4 %13, i64 8, i1 false), !tbaa.struct !136
  %43 = load ptr, ptr %22, align 8, !tbaa !128
  %44 = load i64, ptr %23, align 8, !tbaa !109
  %45 = load i64, ptr %24, align 8, !tbaa !109
  %46 = load i64, ptr %26, align 4
  %47 = call noundef zeroext i1 @_ZN11OpenImageIO6v3_1_010ImageInput14read_scanlinesEiiiiiiiNS0_8TypeDescEPvll(ptr noundef nonnull align 8 dereferenceable(184) %35, i32 noundef %36, i32 noundef %37, i32 noundef %38, i32 noundef %39, i32 noundef %40, i32 noundef %41, i32 noundef %42, i64 %46, ptr noundef %43, i64 noundef %44, i64 noundef %45)
  %48 = zext i1 %47 to i8
  store i8 %48, ptr %25, align 1, !tbaa !118
  %49 = load i8, ptr %25, align 1, !tbaa !118, !range !119, !noundef !120
  %50 = trunc i8 %49 to i1
  br i1 %50, label %51, label %103

51:                                               ; preds = %12
  %52 = getelementptr inbounds nuw %"class.OpenImageIO::v3_1_0::TIFFInput", ptr %35, i32 0, i32 11
  %53 = load i8, ptr %52, align 4, !tbaa !94, !range !119, !noundef !120
  %54 = trunc i8 %53 to i1
  br i1 %54, label %55, label %103

55:                                               ; preds = %51
  call void @llvm.lifetime.start.p0(i64 4, ptr %27) #3
  call void @llvm.lifetime.start.p0(i64 4, ptr %28) #3
  call void @llvm.lifetime.start.p0(i64 4, ptr %29) #3
  call void @llvm.lifetime.start.p0(i64 4, ptr %30) #3
  call void @llvm.lifetime.start.p0(i64 8, ptr %31) #3
  call void @_ZNSt10lock_guardIRKN11OpenImageIO6v3_1_010ImageInputEEC2ES4_(ptr noundef nonnull align 8 dereferenceable(8) %31, ptr noundef nonnull align 8 dereferenceable(184) %35)
  %56 = load i32, ptr %15, align 4, !tbaa !22
  %57 = load i32, ptr %16, align 4, !tbaa !22
  %58 = invoke noundef zeroext i1 @_ZN11OpenImageIO6v3_1_09TIFFInput13seek_subimageEii(ptr noundef nonnull align 8 dereferenceable(384) %35, i32 noundef %56, i32 noundef %57)
          to label %59 unwind label %76

59:                                               ; preds = %55
  %60 = getelementptr inbounds nuw %"class.OpenImageIO::v3_1_0::ImageInput", ptr %35, i32 0, i32 1
  %61 = getelementptr inbounds nuw %"class.OpenImageIO::v3_1_0::ImageSpec", ptr %60, i32 0, i32 15
  %62 = load i32, ptr %61, align 4, !tbaa !141
  store i32 %62, ptr %27, align 4, !tbaa !22
  %63 = getelementptr inbounds nuw %"class.OpenImageIO::v3_1_0::ImageInput", ptr %35, i32 0, i32 1
  %64 = getelementptr inbounds nuw %"class.OpenImageIO::v3_1_0::ImageSpec", ptr %63, i32 0, i32 19
  %65 = load i32, ptr %64, align 8, !tbaa !172
  store i32 %65, ptr %28, align 4, !tbaa !22
  %66 = getelementptr inbounds nuw %"class.OpenImageIO::v3_1_0::ImageInput", ptr %35, i32 0, i32 1
  %67 = getelementptr inbounds nuw %"class.OpenImageIO::v3_1_0::ImageSpec", ptr %66, i32 0, i32 20
  %68 = load i32, ptr %67, align 4, !tbaa !350
  store i32 %68, ptr %29, align 4, !tbaa !22
  %69 = getelementptr inbounds nuw %"class.OpenImageIO::v3_1_0::ImageInput", ptr %35, i32 0, i32 1
  %70 = getelementptr inbounds nuw %"class.OpenImageIO::v3_1_0::ImageSpec", ptr %69, i32 0, i32 3
  %71 = load i32, ptr %70, align 4, !tbaa !138
  store i32 %71, ptr %30, align 4, !tbaa !22
  %72 = call noundef zeroext i1 @_ZNK11OpenImageIO6v3_1_08TypeDesceqERKS1_(ptr noundef nonnull align 4 dereferenceable(8) %13, ptr noundef nonnull align 4 dereferenceable(8) @_ZN11OpenImageIO6v3_1_011TypeUnknownE) #3
  br i1 %72, label %73, label %80

73:                                               ; preds = %59
  %74 = getelementptr inbounds nuw %"class.OpenImageIO::v3_1_0::ImageInput", ptr %35, i32 0, i32 1
  %75 = getelementptr inbounds nuw %"class.OpenImageIO::v3_1_0::ImageSpec", ptr %74, i32 0, i32 16
  call void @llvm.memcpy.p0.p0.i64(ptr align 4 %13, ptr align 8 %75, i64 8, i1 false), !tbaa.struct !136
  br label %80

76:                                               ; preds = %55
  %77 = landingpad { ptr, i32 }
          cleanup
  %78 = extractvalue { ptr, i32 } %77, 0
  store ptr %78, ptr %32, align 8
  %79 = extractvalue { ptr, i32 } %77, 1
  store i32 %79, ptr %33, align 4
  call void @_ZNSt10lock_guardIRKN11OpenImageIO6v3_1_010ImageInputEED2Ev(ptr noundef nonnull align 8 dereferenceable(8) %31) #3
  call void @llvm.lifetime.end.p0(i64 8, ptr %31) #3
  call void @llvm.lifetime.end.p0(i64 4, ptr %30) #3
  call void @llvm.lifetime.end.p0(i64 4, ptr %29) #3
  call void @llvm.lifetime.end.p0(i64 4, ptr %28) #3
  call void @llvm.lifetime.end.p0(i64 4, ptr %27) #3
  call void @llvm.lifetime.end.p0(i64 1, ptr %25) #3
  br label %106

80:                                               ; preds = %73, %59
  call void @_ZNSt10lock_guardIRKN11OpenImageIO6v3_1_010ImageInputEED2Ev(ptr noundef nonnull align 8 dereferenceable(8) %31) #3
  call void @llvm.lifetime.end.p0(i64 8, ptr %31) #3
  %81 = load i32, ptr %28, align 4, !tbaa !22
  %82 = load i32, ptr %20, align 4, !tbaa !22
  %83 = icmp sge i32 %81, %82
  br i1 %83, label %84, label %102

84:                                               ; preds = %80
  %85 = load i32, ptr %28, align 4, !tbaa !22
  %86 = load i32, ptr %21, align 4, !tbaa !22
  %87 = icmp slt i32 %85, %86
  br i1 %87, label %88, label %102

88:                                               ; preds = %84
  %89 = load i32, ptr %27, align 4, !tbaa !22
  %90 = load i32, ptr %30, align 4, !tbaa !22
  %91 = load i32, ptr %18, align 4, !tbaa !22
  %92 = load i32, ptr %17, align 4, !tbaa !22
  %93 = sub nsw i32 %91, %92
  %94 = load i32, ptr %20, align 4, !tbaa !22
  %95 = load i32, ptr %21, align 4, !tbaa !22
  call void @llvm.memcpy.p0.p0.i64(ptr align 4 %34, ptr align 4 %13, i64 8, i1 false), !tbaa.struct !136
  %96 = load ptr, ptr %22, align 8, !tbaa !128
  %97 = load i64, ptr %23, align 8, !tbaa !109
  %98 = load i64, ptr %24, align 8, !tbaa !109
  %99 = load i32, ptr %28, align 4, !tbaa !22
  %100 = load i32, ptr %29, align 4, !tbaa !22
  %101 = load i64, ptr %34, align 4
  call void @_ZN11OpenImageIO6v3_1_07premultEiiiiiiNS0_8TypeDescEPvlllii(i32 noundef %89, i32 noundef %90, i32 noundef %93, i32 noundef 1, i32 noundef %94, i32 noundef %95, i64 %101, ptr noundef %96, i64 noundef %97, i64 noundef %98, i64 noundef -9223372036854775808, i32 noundef %99, i32 noundef %100)
  br label %102

102:                                              ; preds = %88, %84, %80
  call void @llvm.lifetime.end.p0(i64 4, ptr %30) #3
  call void @llvm.lifetime.end.p0(i64 4, ptr %29) #3
  call void @llvm.lifetime.end.p0(i64 4, ptr %28) #3
  call void @llvm.lifetime.end.p0(i64 4, ptr %27) #3
  br label %103

103:                                              ; preds = %102, %51, %12
  %104 = load i8, ptr %25, align 1, !tbaa !118, !range !119, !noundef !120
  %105 = trunc i8 %104 to i1
  call void @llvm.lifetime.end.p0(i64 1, ptr %25) #3
  ret i1 %105

106:                                              ; preds = %76
  %107 = load ptr, ptr %32, align 8
  %108 = load i32, ptr %33, align 4
  %109 = insertvalue { ptr, i32 } poison, ptr %107, 0
  %110 = insertvalue { ptr, i32 } %109, i32 %108, 1
  resume { ptr, i32 } %110
}