; Function Attrs: mustprogress uwtable
define hidden noundef zeroext i1 @_ZN11OpenImageIO6v3_1_09TIFFInput14read_scanlinesEiiiiiiiNS0_8TypeDescEPvll(ptr noundef nonnull align 8 dereferenceable(384) %0, i32 noundef %1, i32 noundef %2, i32 noundef %3, i32 noundef %4, i32 noundef %5, i32 noundef %6, i32 noundef %7, i64 %8, ptr noundef %9, i64 noundef %10, i64 noundef %11) unnamed_addr #5 align 2 personality ptr @__gxx_personality_v0 {
  %.sroa.4.0.extract.shift = lshr i64 %8, 8
  %.sroa.5.0.extract.shift = lshr i64 %8, 16
  %13 = tail call noundef zeroext i1 @_ZN11OpenImageIO6v3_1_010ImageInput14read_scanlinesEiiiiiiiNS0_8TypeDescEPvll(ptr noundef nonnull align 8 dereferenceable(184) %0, i32 noundef %1, i32 noundef %2, i32 noundef %3, i32 noundef %4, i32 noundef %5, i32 noundef %6, i32 noundef %7, i64 %8, ptr noundef %9, i64 noundef %10, i64 noundef %11)
  br i1 %13, label %14, label %52

14:                                               ; preds = %12
  %15 = getelementptr inbounds nuw i8, ptr %0, i64 284
  %16 = load i8, ptr %15, align 4, !tbaa !175, !range !16, !noundef !17
  %17 = trunc nuw i8 %16 to i1
  br i1 %17, label %18, label %52

18:                                               ; preds = %14
  tail call void @_ZNK11OpenImageIO6v3_1_010ImageInput4lockEv(ptr noundef nonnull align 8 dereferenceable(184) %0)
  %19 = invoke noundef zeroext i1 @_ZN11OpenImageIO6v3_1_09TIFFInput13seek_subimageEii(ptr noundef nonnull align 8 dereferenceable(384) %0, i32 noundef %1, i32 noundef %2)
          to label %20 unwind label %41

20:                                               ; preds = %18
  %21 = getelementptr inbounds nuw i8, ptr %0, i64 68
  %22 = load i32, ptr %21, align 4, !tbaa !134
  %23 = getelementptr inbounds nuw i8, ptr %0, i64 128
  %24 = load i32, ptr %23, align 8, !tbaa !166
  %25 = getelementptr inbounds nuw i8, ptr %0, i64 132
  %26 = load i32, ptr %25, align 4, !tbaa !366
  %27 = getelementptr inbounds nuw i8, ptr %0, i64 20
  %28 = load i32, ptr %27, align 4, !tbaa !131
  %29 = and i64 %8, 255
  %30 = icmp eq i64 %29, 0
  br i1 %30, label %31, label %_ZNK11OpenImageIO6v3_1_08TypeDesceqERKS1_.exit.thread

31:                                               ; preds = %20
  %32 = and i64 %8, 65280
  %33 = icmp eq i64 %32, 256
  br i1 %33, label %34, label %_ZNK11OpenImageIO6v3_1_08TypeDesceqERKS1_.exit.thread

34:                                               ; preds = %31
  %35 = and i64 %8, 16711680
  %36 = icmp eq i64 %35, 0
  br i1 %36, label %_ZNK11OpenImageIO6v3_1_08TypeDesceqERKS1_.exit, label %_ZNK11OpenImageIO6v3_1_08TypeDesceqERKS1_.exit.thread

_ZNK11OpenImageIO6v3_1_08TypeDesceqERKS1_.exit:   ; preds = %34
  %37 = icmp ult i64 %8, 4294967296
  br i1 %37, label %38, label %_ZNK11OpenImageIO6v3_1_08TypeDesceqERKS1_.exit.thread

38:                                               ; preds = %_ZNK11OpenImageIO6v3_1_08TypeDesceqERKS1_.exit
  %39 = getelementptr inbounds nuw i8, ptr %0, i64 72
  %40 = load i64, ptr %39, align 8
  %.sroa.4.0.extract.shift38 = lshr i64 %40, 8
  %.sroa.5.0.extract.shift40 = lshr i64 %40, 16
  br label %_ZNK11OpenImageIO6v3_1_08TypeDesceqERKS1_.exit.thread

41:                                               ; preds = %18
  %42 = landingpad { ptr, i32 }
          cleanup
  invoke void @_ZNK11OpenImageIO6v3_1_010ImageInput6unlockEv(ptr noundef nonnull align 8 dereferenceable(184) %0)
          to label %_ZNSt10lock_guardIRKN11OpenImageIO6v3_1_010ImageInputEED2Ev.exit unwind label %43

43:                                               ; preds = %41
  %44 = landingpad { ptr, i32 }
          catch ptr null
  %45 = extractvalue { ptr, i32 } %44, 0
  tail call void @__clang_call_terminate(ptr %45) #37
  unreachable

_ZNSt10lock_guardIRKN11OpenImageIO6v3_1_010ImageInputEED2Ev.exit: ; preds = %41
  resume { ptr, i32 } %42

_ZNK11OpenImageIO6v3_1_08TypeDesceqERKS1_.exit.thread: ; preds = %20, %31, %34, %38, %_ZNK11OpenImageIO6v3_1_08TypeDesceqERKS1_.exit
  %.sroa.6.0.in.in = phi i64 [ %40, %38 ], [ %8, %_ZNK11OpenImageIO6v3_1_08TypeDesceqERKS1_.exit ], [ %8, %34 ], [ %8, %31 ], [ %8, %20 ]
  %.sroa.5.0 = phi i64 [ %.sroa.5.0.extract.shift40, %38 ], [ 0, %_ZNK11OpenImageIO6v3_1_08TypeDesceqERKS1_.exit ], [ %.sroa.5.0.extract.shift, %34 ], [ %.sroa.5.0.extract.shift, %31 ], [ %.sroa.5.0.extract.shift, %20 ]
  %.sroa.4.0 = phi i64 [ %.sroa.4.0.extract.shift38, %38 ], [ 1, %_ZNK11OpenImageIO6v3_1_08TypeDesceqERKS1_.exit ], [ 1, %34 ], [ %.sroa.4.0.extract.shift, %31 ], [ %.sroa.4.0.extract.shift, %20 ]
  %.sroa.036.0 = phi i64 [ %40, %38 ], [ 0, %_ZNK11OpenImageIO6v3_1_08TypeDesceqERKS1_.exit ], [ 0, %34 ], [ 0, %31 ], [ %8, %20 ]
  invoke void @_ZNK11OpenImageIO6v3_1_010ImageInput6unlockEv(ptr noundef nonnull align 8 dereferenceable(184) %0)
          to label %_ZNSt10lock_guardIRKN11OpenImageIO6v3_1_010ImageInputEED2Ev.exit34 unwind label %46

46:                                               ; preds = %_ZNK11OpenImageIO6v3_1_08TypeDesceqERKS1_.exit.thread
  %47 = landingpad { ptr, i32 }
          catch ptr null
  %48 = extractvalue { ptr, i32 } %47, 0
  tail call void @__clang_call_terminate(ptr %48) #37
  unreachable

_ZNSt10lock_guardIRKN11OpenImageIO6v3_1_010ImageInputEED2Ev.exit34: ; preds = %_ZNK11OpenImageIO6v3_1_08TypeDesceqERKS1_.exit.thread
  %.not = icmp sge i32 %24, %6
  %49 = icmp slt i32 %24, %7
  %or.cond = and i1 %.not, %49
  br i1 %or.cond, label %50, label %52

50:                                               ; preds = %_ZNSt10lock_guardIRKN11OpenImageIO6v3_1_010ImageInputEED2Ev.exit34
  %51 = sub nsw i32 %4, %3
  %.sroa.6.0.insert.insert = and i64 %.sroa.6.0.in.in, -16777216
  %.sroa.5.0.insert.ext = shl nuw i64 %.sroa.5.0, 16
  %.sroa.5.0.insert.shift = and i64 %.sroa.5.0.insert.ext, 16711680
  %.sroa.5.0.insert.insert = or disjoint i64 %.sroa.5.0.insert.shift, %.sroa.6.0.insert.insert
  %.sroa.4.0.insert.ext = shl nuw i64 %.sroa.4.0, 8
  %.sroa.4.0.insert.shift = and i64 %.sroa.4.0.insert.ext, 65280
  %.sroa.4.0.insert.insert = or disjoint i64 %.sroa.5.0.insert.insert, %.sroa.4.0.insert.shift
  %.sroa.036.0.insert.ext = and i64 %.sroa.036.0, 255
  %.sroa.036.0.insert.insert = or disjoint i64 %.sroa.4.0.insert.insert, %.sroa.036.0.insert.ext
  tail call void @_ZN11OpenImageIO6v3_1_07premultEiiiiiiNS0_8TypeDescEPvlllii(i32 noundef %22, i32 noundef %28, i32 noundef %51, i32 noundef 1, i32 noundef %6, i32 noundef %7, i64 %.sroa.036.0.insert.insert, ptr noundef %9, i64 noundef %10, i64 noundef %11, i64 noundef -9223372036854775808, i32 noundef %24, i32 noundef %26)
  br label %52

52:                                               ; preds = %_ZNSt10lock_guardIRKN11OpenImageIO6v3_1_010ImageInputEED2Ev.exit34, %50, %14, %12
  ret i1 %13
}